ccopy_reg
_reconstructor
p0
(csave_restore_layout.save_restore_layout
LayoutData
p1
c__builtin__
tuple
p2
(V(kicad_pcb (version 20171130) (host pcbnew 5.1.6)\u000a\u000a  (general\u000a    (thickness 1.6)\u000a    (drawings 2)\u000a    (tracks 57)\u000a    (zones 0)\u000a    (modules 12)\u000a    (nets 11)\u000a  )\u000a\u000a  (page A4)\u000a  (layers\u000a    (0 F.Cu signal)\u000a    (31 B.Cu signal)\u000a    (32 B.Adhes user hide)\u000a    (33 F.Adhes user hide)\u000a    (34 B.Paste user hide)\u000a    (35 F.Paste user hide)\u000a    (36 B.SilkS user)\u000a    (37 F.SilkS user hide)\u000a    (38 B.Mask user hide)\u000a    (39 F.Mask user hide)\u000a    (40 Dwgs.User user hide)\u000a    (41 Cmts.User user hide)\u000a    (42 Eco1.User user hide)\u000a    (43 Eco2.User user hide)\u000a    (44 Edge.Cuts user hide)\u000a    (45 Margin user hide)\u000a    (46 B.CrtYd user)\u000a    (47 F.CrtYd user)\u000a    (48 B.Fab user hide)\u000a    (49 F.Fab user hide)\u000a  )\u000a\u000a  (setup\u000a    (last_trace_width 0.15)\u000a    (user_trace_width 0.15)\u000a    (user_trace_width 0.2)\u000a    (user_trace_width 0.3)\u000a    (user_trace_width 0.5)\u000a    (trace_clearance 0.15)\u000a    (zone_clearance 0.508)\u000a    (zone_45_only no)\u000a    (trace_min 0.15)\u000a    (via_size 0.5)\u000a    (via_drill 0.2)\u000a    (via_min_size 0.4)\u000a    (via_min_drill 0.2)\u000a    (user_via 0.5 0.2)\u000a    (user_via 0.6 0.3)\u000a    (uvia_size 0.3)\u000a    (uvia_drill 0.1)\u000a    (uvias_allowed no)\u000a    (uvia_min_size 0.2)\u000a    (uvia_min_drill 0.1)\u000a    (edge_width 0.05)\u000a    (segment_width 0.2)\u000a    (pcb_text_width 0.3)\u000a    (pcb_text_size 1.5 1.5)\u000a    (mod_edge_width 0.12)\u000a    (mod_text_size 1 1)\u000a    (mod_text_width 0.15)\u000a    (pad_size 1.524 1.524)\u000a    (pad_drill 0.762)\u000a    (pad_to_mask_clearance 0.051)\u000a    (solder_mask_min_width 0.25)\u000a    (aux_axis_origin 0 0)\u000a    (visible_elements FFFFFF7F)\u000a    (pcbplotparams\u000a      (layerselection 0x010fc_ffffffff)\u000a      (usegerberextensions false)\u000a      (usegerberattributes false)\u000a      (usegerberadvancedattributes false)\u000a      (creategerberjobfile false)\u000a      (excludeedgelayer true)\u000a      (linewidth 0.100000)\u000a      (plotframeref false)\u000a      (viasonmask false)\u000a      (mode 1)\u000a      (useauxorigin false)\u000a      (hpglpennumber 1)\u000a      (hpglpenspeed 20)\u000a      (hpglpendiameter 15.000000)\u000a      (psnegative false)\u000a      (psa4output false)\u000a      (plotreference true)\u000a      (plotvalue true)\u000a      (plotinvisibletext false)\u000a      (padsonsilk false)\u000a      (subtractmaskfromsilk false)\u000a      (outputformat 1)\u000a      (mirror false)\u000a      (drillshape 1)\u000a      (scaleselection 1)\u000a      (outputdirectory ""))\u000a  )\u000a\u000a  (net 0 "")\u000a  (net 1 GND)\u000a  (net 2 "Net-(C1-Pad1)")\u000a  (net 3 "Net-(C2-Pad1)")\u000a  (net 4 "Net-(D1-Pad2)")\u000a  (net 5 "Net-(D1-Pad1)")\u000a  (net 6 /DSI1/VIO)\u000a  (net 7 /DSI1/IN1)\u000a  (net 8 /DSI1/IN2)\u000a  (net 9 /DSI1/OUT1)\u000a  (net 10 /DSI1/OUT2)\u000a\u000a  (net_class Default "This is the default net class."\u000a    (clearance 0.15)\u000a    (trace_width 0.15)\u000a    (via_dia 0.5)\u000a    (via_drill 0.2)\u000a    (uvia_dia 0.3)\u000a    (uvia_drill 0.1)\u000a    (add_net /DSI1/IN1)\u000a    (add_net /DSI1/IN2)\u000a    (add_net /DSI1/OUT1)\u000a    (add_net /DSI1/OUT2)\u000a    (add_net /DSI1/VIO)\u000a    (add_net GND)\u000a    (add_net "Net-(C1-Pad1)")\u000a    (add_net "Net-(C2-Pad1)")\u000a    (add_net "Net-(D1-Pad1)")\u000a    (add_net "Net-(D1-Pad2)")\u000a  )\u000a\u000a  (module Resistor_SMD:R_0603_1608Metric_Pad1.05x0.95mm_HandSolder (layer B.Cu) (tedit 5B301BBD) (tstamp 5E9370A0)\u000a    (at 118.3005 59.6265 180)\u000a    (descr "Resistor SMD 0603 (1608 Metric), square (rectangular) end terminal, IPC_7351 nominal with elongated pad for handsoldering. (Body size source: http://www.tortai-tech.com/upload/download/2011102023233369053.pdf), generated with kicad-footprint-generator")\u000a    (tags "resistor handsolder")\u000a    (path /5E93A753/5D103A02)\u000a    (attr smd)\u000a    (fp_text reference R8 (at 0 -1.143 180) (layer B.SilkS)\u000a      (effects (font (size 1 1) (thickness 0.15)) (justify mirror))\u000a    )\u000a    (fp_text value 1k (at 0 -1.43 180) (layer B.Fab)\u000a      (effects (font (size 1 1) (thickness 0.15)) (justify mirror))\u000a    )\u000a    (fp_line (start -0.8 -0.4) (end -0.8 0.4) (layer B.Fab) (width 0.1))\u000a    (fp_line (start -0.8 0.4) (end 0.8 0.4) (layer B.Fab) (width 0.1))\u000a    (fp_line (start 0.8 0.4) (end 0.8 -0.4) (layer B.Fab) (width 0.1))\u000a    (fp_line (start 0.8 -0.4) (end -0.8 -0.4) (layer B.Fab) (width 0.1))\u000a    (fp_line (start -0.171267 0.51) (end 0.171267 0.51) (layer B.SilkS) (width 0.12))\u000a    (fp_line (start -0.171267 -0.51) (end 0.171267 -0.51) (layer B.SilkS) (width 0.12))\u000a    (fp_line (start -1.65 -0.73) (end -1.65 0.73) (layer B.CrtYd) (width 0.05))\u000a    (fp_line (start -1.65 0.73) (end 1.65 0.73) (layer B.CrtYd) (width 0.05))\u000a    (fp_line (start 1.65 0.73) (end 1.65 -0.73) (layer B.CrtYd) (width 0.05))\u000a    (fp_line (start 1.65 -0.73) (end -1.65 -0.73) (layer B.CrtYd) (width 0.05))\u000a    (fp_text user %R (at 0 0 180) (layer B.Fab)\u000a      (effects (font (size 0.4 0.4) (thickness 0.06)) (justify mirror))\u000a    )\u000a    (pad 2 smd roundrect (at 0.875 0 180) (size 1.05 0.95) (layers B.Cu B.Paste B.Mask) (roundrect_rratio 0.25)\u000a      (net 3 "Net-(C2-Pad1)"))\u000a    (pad 1 smd roundrect (at -0.875 0 180) (size 1.05 0.95) (layers B.Cu B.Paste B.Mask) (roundrect_rratio 0.25)\u000a      (net 10 /DSI1/OUT2))\u000a    (model ${KISYS3DMOD}/Resistor_SMD.3dshapes/R_0603_1608Metric.wrl\u000a      (at (xyz 0 0 0))\u000a      (scale (xyz 1 1 1))\u000a      (rotate (xyz 0 0 0))\u000a    )\u000a  )\u000a\u000a  (module Resistor_SMD:R_0603_1608Metric_Pad1.05x0.95mm_HandSolder (layer B.Cu) (tedit 5B301BBD) (tstamp 5E93708F)\u000a    (at 118.3005 58.166 180)\u000a    (descr "Resistor SMD 0603 (1608 Metric), square (rectangular) end terminal, IPC_7351 nominal with elongated pad for handsoldering. (Body size source: http://www.tortai-tech.com/upload/download/2011102023233369053.pdf), generated with kicad-footprint-generator")\u000a    (tags "resistor handsolder")\u000a    (path /5E93A753/5D0FFECA)\u000a    (attr smd)\u000a    (fp_text reference R7 (at 0 1.143) (layer B.SilkS)\u000a      (effects (font (size 1 1) (thickness 0.15)) (justify mirror))\u000a    )\u000a    (fp_text value 1k (at 0 -1.43) (layer B.Fab)\u000a      (effects (font (size 1 1) (thickness 0.15)) (justify mirror))\u000a    )\u000a    (fp_line (start -0.8 -0.4) (end -0.8 0.4) (layer B.Fab) (width 0.1))\u000a    (fp_line (start -0.8 0.4) (end 0.8 0.4) (layer B.Fab) (width 0.1))\u000a    (fp_line (start 0.8 0.4) (end 0.8 -0.4) (layer B.Fab) (width 0.1))\u000a    (fp_line (start 0.8 -0.4) (end -0.8 -0.4) (layer B.Fab) (width 0.1))\u000a    (fp_line (start -0.171267 0.51) (end 0.171267 0.51) (layer B.SilkS) (width 0.12))\u000a    (fp_line (start -0.171267 -0.51) (end 0.171267 -0.51) (layer B.SilkS) (width 0.12))\u000a    (fp_line (start -1.65 -0.73) (end -1.65 0.73) (layer B.CrtYd) (width 0.05))\u000a    (fp_line (start -1.65 0.73) (end 1.65 0.73) (layer B.CrtYd) (width 0.05))\u000a    (fp_line (start 1.65 0.73) (end 1.65 -0.73) (layer B.CrtYd) (width 0.05))\u000a    (fp_line (start 1.65 -0.73) (end -1.65 -0.73) (layer B.CrtYd) (width 0.05))\u000a    (fp_text user %R (at 0 0) (layer B.Fab)\u000a      (effects (font (size 0.4 0.4) (thickness 0.06)) (justify mirror))\u000a    )\u000a    (pad 2 smd roundrect (at 0.875 0 180) (size 1.05 0.95) (layers B.Cu B.Paste B.Mask) (roundrect_rratio 0.25)\u000a      (net 2 "Net-(C1-Pad1)"))\u000a    (pad 1 smd roundrect (at -0.875 0 180) (size 1.05 0.95) (layers B.Cu B.Paste B.Mask) (roundrect_rratio 0.25)\u000a      (net 9 /DSI1/OUT1))\u000a    (model ${KISYS3DMOD}/Resistor_SMD.3dshapes/R_0603_1608Metric.wrl\u000a      (at (xyz 0 0 0))\u000a      (scale (xyz 1 1 1))\u000a      (rotate (xyz 0 0 0))\u000a    )\u000a  )\u000a\u000a  (module Resistor_SMD:R_0603_1608Metric_Pad1.05x0.95mm_HandSolder (layer B.Cu) (tedit 5B301BBD) (tstamp 5E9382A6)\u000a    (at 114.8715 59.944 180)\u000a    (descr "Resistor SMD 0603 (1608 Metric), square (rectangular) end terminal, IPC_7351 nominal with elongated pad for handsoldering. (Body size source: http://www.tortai-tech.com/upload/download/2011102023233369053.pdf), generated with kicad-footprint-generator")\u000a    (tags "resistor handsolder")\u000a    (path /5E93A753/5D1039ED)\u000a    (attr smd)\u000a    (fp_text reference R6 (at 0 -1.0795) (layer B.SilkS)\u000a      (effects (font (size 1 1) (thickness 0.15)) (justify mirror))\u000a    )\u000a    (fp_text value 3.9k (at 0 -1.43) (layer B.Fab)\u000a      (effects (font (size 1 1) (thickness 0.15)) (justify mirror))\u000a    )\u000a    (fp_line (start -0.8 -0.4) (end -0.8 0.4) (layer B.Fab) (width 0.1))\u000a    (fp_line (start -0.8 0.4) (end 0.8 0.4) (layer B.Fab) (width 0.1))\u000a    (fp_line (start 0.8 0.4) (end 0.8 -0.4) (layer B.Fab) (width 0.1))\u000a    (fp_line (start 0.8 -0.4) (end -0.8 -0.4) (layer B.Fab) (width 0.1))\u000a    (fp_line (start -0.171267 0.51) (end 0.171267 0.51) (layer B.SilkS) (width 0.12))\u000a    (fp_line (start -0.171267 -0.51) (end 0.171267 -0.51) (layer B.SilkS) (width 0.12))\u000a    (fp_line (start -1.65 -0.73) (end -1.65 0.73) (layer B.CrtYd) (width 0.05))\u000a    (fp_line (start -1.65 0.73) (end 1.65 0.73) (layer B.CrtYd) (width 0.05))\u000a    (fp_line (start 1.65 0.73) (end 1.65 -0.73) (layer B.CrtYd) (width 0.05))\u000a    (fp_line (start 1.65 -0.73) (end -1.65 -0.73) (layer B.CrtYd) (width 0.05))\u000a    (fp_text user %R (at 0 0) (layer B.Fab)\u000a      (effects (font (size 0.4 0.4) (thickness 0.06)) (justify mirror))\u000a    )\u000a    (pad 2 smd roundrect (at 0.875 0 180) (size 1.05 0.95) (layers B.Cu B.Paste B.Mask) (roundrect_rratio 0.25)\u000a      (net 1 GND))\u000a    (pad 1 smd roundrect (at -0.875 0 180) (size 1.05 0.95) (layers B.Cu B.Paste B.Mask) (roundrect_rratio 0.25)\u000a      (net 3 "Net-(C2-Pad1)"))\u000a    (model ${KISYS3DMOD}/Resistor_SMD.3dshapes/R_0603_1608Metric.wrl\u000a      (at (xyz 0 0 0))\u000a      (scale (xyz 1 1 1))\u000a      (rotate (xyz 0 0 0))\u000a    )\u000a  )\u000a\u000a  (module Resistor_SMD:R_0603_1608Metric_Pad1.05x0.95mm_HandSolder (layer B.Cu) (tedit 5B301BBD) (tstamp 5E93706D)\u000a    (at 114.8715 57.785 180)\u000a    (descr "Resistor SMD 0603 (1608 Metric), square (rectangular) end terminal, IPC_7351 nominal with elongated pad for handsoldering. (Body size source: http://www.tortai-tech.com/upload/download/2011102023233369053.pdf), generated with kicad-footprint-generator")\u000a    (tags "resistor handsolder")\u000a    (path /5E93A753/5D0FFD41)\u000a    (attr smd)\u000a    (fp_text reference R5 (at 0 0.9525) (layer B.SilkS)\u000a      (effects (font (size 1 1) (thickness 0.15)) (justify mirror))\u000a    )\u000a    (fp_text value 3.9k (at 0 -1.43) (layer B.Fab)\u000a      (effects (font (size 1 1) (thickness 0.15)) (justify mirror))\u000a    )\u000a    (fp_line (start -0.8 -0.4) (end -0.8 0.4) (layer B.Fab) (width 0.1))\u000a    (fp_line (start -0.8 0.4) (end 0.8 0.4) (layer B.Fab) (width 0.1))\u000a    (fp_line (start 0.8 0.4) (end 0.8 -0.4) (layer B.Fab) (width 0.1))\u000a    (fp_line (start 0.8 -0.4) (end -0.8 -0.4) (layer B.Fab) (width 0.1))\u000a    (fp_line (start -0.171267 0.51) (end 0.171267 0.51) (layer B.SilkS) (width 0.12))\u000a    (fp_line (start -0.171267 -0.51) (end 0.171267 -0.51) (layer B.SilkS) (width 0.12))\u000a    (fp_line (start -1.65 -0.73) (end -1.65 0.73) (layer B.CrtYd) (width 0.05))\u000a    (fp_line (start -1.65 0.73) (end 1.65 0.73) (layer B.CrtYd) (width 0.05))\u000a    (fp_line (start 1.65 0.73) (end 1.65 -0.73) (layer B.CrtYd) (width 0.05))\u000a    (fp_line (start 1.65 -0.73) (end -1.65 -0.73) (layer B.CrtYd) (width 0.05))\u000a    (fp_text user %R (at 0 0) (layer B.Fab)\u000a      (effects (font (size 0.4 0.4) (thickness 0.06)) (justify mirror))\u000a    )\u000a    (pad 2 smd roundrect (at 0.875 0 180) (size 1.05 0.95) (layers B.Cu B.Paste B.Mask) (roundrect_rratio 0.25)\u000a      (net 1 GND))\u000a    (pad 1 smd roundrect (at -0.875 0 180) (size 1.05 0.95) (layers B.Cu B.Paste B.Mask) (roundrect_rratio 0.25)\u000a      (net 2 "Net-(C1-Pad1)"))\u000a    (model ${KISYS3DMOD}/Resistor_SMD.3dshapes/R_0603_1608Metric.wrl\u000a      (at (xyz 0 0 0))\u000a      (scale (xyz 1 1 1))\u000a      (rotate (xyz 0 0 0))\u000a    )\u000a  )\u000a\u000a  (module Resistor_SMD:R_0603_1608Metric_Pad1.05x0.95mm_HandSolder (layer B.Cu) (tedit 5B301BBD) (tstamp 5E93705C)\u000a    (at 111.5695 59.6265 180)\u000a    (descr "Resistor SMD 0603 (1608 Metric), square (rectangular) end terminal, IPC_7351 nominal with elongated pad for handsoldering. (Body size source: http://www.tortai-tech.com/upload/download/2011102023233369053.pdf), generated with kicad-footprint-generator")\u000a    (tags "resistor handsolder")\u000a    (path /5E93A753/5D1039FB)\u000a    (attr smd)\u000a    (fp_text reference R4 (at -0.0635 -1.0795) (layer B.SilkS)\u000a      (effects (font (size 1 1) (thickness 0.15)) (justify mirror))\u000a    )\u000a    (fp_text value 10k (at 0 -1.43) (layer B.Fab)\u000a      (effects (font (size 1 1) (thickness 0.15)) (justify mirror))\u000a    )\u000a    (fp_line (start -0.8 -0.4) (end -0.8 0.4) (layer B.Fab) (width 0.1))\u000a    (fp_line (start -0.8 0.4) (end 0.8 0.4) (layer B.Fab) (width 0.1))\u000a    (fp_line (start 0.8 0.4) (end 0.8 -0.4) (layer B.Fab) (width 0.1))\u000a    (fp_line (start 0.8 -0.4) (end -0.8 -0.4) (layer B.Fab) (width 0.1))\u000a    (fp_line (start -0.171267 0.51) (end 0.171267 0.51) (layer B.SilkS) (width 0.12))\u000a    (fp_line (start -0.171267 -0.51) (end 0.171267 -0.51) (layer B.SilkS) (width 0.12))\u000a    (fp_line (start -1.65 -0.73) (end -1.65 0.73) (layer B.CrtYd) (width 0.05))\u000a    (fp_line (start -1.65 0.73) (end 1.65 0.73) (layer B.CrtYd) (width 0.05))\u000a    (fp_line (start 1.65 0.73) (end 1.65 -0.73) (layer B.CrtYd) (width 0.05))\u000a    (fp_line (start 1.65 -0.73) (end -1.65 -0.73) (layer B.CrtYd) (width 0.05))\u000a    (fp_text user %R (at 0 0) (layer B.Fab)\u000a      (effects (font (size 0.4 0.4) (thickness 0.06)) (justify mirror))\u000a    )\u000a    (pad 2 smd roundrect (at 0.875 0 180) (size 1.05 0.95) (layers B.Cu B.Paste B.Mask) (roundrect_rratio 0.25)\u000a      (net 4 "Net-(D1-Pad2)"))\u000a    (pad 1 smd roundrect (at -0.875 0 180) (size 1.05 0.95) (layers B.Cu B.Paste B.Mask) (roundrect_rratio 0.25)\u000a      (net 3 "Net-(C2-Pad1)"))\u000a    (model ${KISYS3DMOD}/Resistor_SMD.3dshapes/R_0603_1608Metric.wrl\u000a      (at (xyz 0 0 0))\u000a      (scale (xyz 1 1 1))\u000a      (rotate (xyz 0 0 0))\u000a    )\u000a  )\u000a\u000a  (module Resistor_SMD:R_0603_1608Metric_Pad1.05x0.95mm_HandSolder (layer B.Cu) (tedit 5B301BBD) (tstamp 5E9375E9)\u000a    (at 111.5695 58.166 180)\u000a    (descr "Resistor SMD 0603 (1608 Metric), square (rectangular) end terminal, IPC_7351 nominal with elongated pad for handsoldering. (Body size source: http://www.tortai-tech.com/upload/download/2011102023233369053.pdf), generated with kicad-footprint-generator")\u000a    (tags "resistor handsolder")\u000a    (path /5E93A753/5D0FFE42)\u000a    (attr smd)\u000a    (fp_text reference R3 (at -0.0635 0.9525) (layer B.SilkS)\u000a      (effects (font (size 1 1) (thickness 0.15)) (justify mirror))\u000a    )\u000a    (fp_text value 10k (at 0 -1.43) (layer B.Fab)\u000a      (effects (font (size 1 1) (thickness 0.15)) (justify mirror))\u000a    )\u000a    (fp_line (start -0.8 -0.4) (end -0.8 0.4) (layer B.Fab) (width 0.1))\u000a    (fp_line (start -0.8 0.4) (end 0.8 0.4) (layer B.Fab) (width 0.1))\u000a    (fp_line (start 0.8 0.4) (end 0.8 -0.4) (layer B.Fab) (width 0.1))\u000a    (fp_line (start 0.8 -0.4) (end -0.8 -0.4) (layer B.Fab) (width 0.1))\u000a    (fp_line (start -0.171267 0.51) (end 0.171267 0.51) (layer B.SilkS) (width 0.12))\u000a    (fp_line (start -0.171267 -0.51) (end 0.171267 -0.51) (layer B.SilkS) (width 0.12))\u000a    (fp_line (start -1.65 -0.73) (end -1.65 0.73) (layer B.CrtYd) (width 0.05))\u000a    (fp_line (start -1.65 0.73) (end 1.65 0.73) (layer B.CrtYd) (width 0.05))\u000a    (fp_line (start 1.65 0.73) (end 1.65 -0.73) (layer B.CrtYd) (width 0.05))\u000a    (fp_line (start 1.65 -0.73) (end -1.65 -0.73) (layer B.CrtYd) (width 0.05))\u000a    (fp_text user %R (at 0 0) (layer B.Fab)\u000a      (effects (font (size 0.4 0.4) (thickness 0.06)) (justify mirror))\u000a    )\u000a    (pad 2 smd roundrect (at 0.875 0 180) (size 1.05 0.95) (layers B.Cu B.Paste B.Mask) (roundrect_rratio 0.25)\u000a      (net 5 "Net-(D1-Pad1)"))\u000a    (pad 1 smd roundrect (at -0.875 0 180) (size 1.05 0.95) (layers B.Cu B.Paste B.Mask) (roundrect_rratio 0.25)\u000a      (net 2 "Net-(C1-Pad1)"))\u000a    (model ${KISYS3DMOD}/Resistor_SMD.3dshapes/R_0603_1608Metric.wrl\u000a      (at (xyz 0 0 0))\u000a      (scale (xyz 1 1 1))\u000a      (rotate (xyz 0 0 0))\u000a    )\u000a  )\u000a\u000a  (module Resistor_SMD:R_0603_1608Metric_Pad1.05x0.95mm_HandSolder (layer B.Cu) (tedit 5B301BBD) (tstamp 5E93795E)\u000a    (at 107.5182 59.8932)\u000a    (descr "Resistor SMD 0603 (1608 Metric), square (rectangular) end terminal, IPC_7351 nominal with elongated pad for handsoldering. (Body size source: http://www.tortai-tech.com/upload/download/2011102023233369053.pdf), generated with kicad-footprint-generator")\u000a    (tags "resistor handsolder")\u000a    (path /5E93A753/5D1039F4)\u000a    (attr smd)\u000a    (fp_text reference R2 (at -2.2225 0.0635) (layer B.SilkS)\u000a      (effects (font (size 1 1) (thickness 0.15)) (justify mirror))\u000a    )\u000a    (fp_text value 100R (at 0 -1.43) (layer B.Fab)\u000a      (effects (font (size 1 1) (thickness 0.15)) (justify mirror))\u000a    )\u000a    (fp_line (start -0.8 -0.4) (end -0.8 0.4) (layer B.Fab) (width 0.1))\u000a    (fp_line (start -0.8 0.4) (end 0.8 0.4) (layer B.Fab) (width 0.1))\u000a    (fp_line (start 0.8 0.4) (end 0.8 -0.4) (layer B.Fab) (width 0.1))\u000a    (fp_line (start 0.8 -0.4) (end -0.8 -0.4) (layer B.Fab) (width 0.1))\u000a    (fp_line (start -0.171267 0.51) (end 0.171267 0.51) (layer B.SilkS) (width 0.12))\u000a    (fp_line (start -0.171267 -0.51) (end 0.171267 -0.51) (layer B.SilkS) (width 0.12))\u000a    (fp_line (start -1.65 -0.73) (end -1.65 0.73) (layer B.CrtYd) (width 0.05))\u000a    (fp_line (start -1.65 0.73) (end 1.65 0.73) (layer B.CrtYd) (width 0.05))\u000a    (fp_line (start 1.65 0.73) (end 1.65 -0.73) (layer B.CrtYd) (width 0.05))\u000a    (fp_line (start 1.65 -0.73) (end -1.65 -0.73) (layer B.CrtYd) (width 0.05))\u000a    (fp_text user %R (at 0 0) (layer B.Fab)\u000a      (effects (font (size 0.4 0.4) (thickness 0.06)) (justify mirror))\u000a    )\u000a    (pad 2 smd roundrect (at 0.875 0) (size 1.05 0.95) (layers B.Cu B.Paste B.Mask) (roundrect_rratio 0.25)\u000a      (net 4 "Net-(D1-Pad2)"))\u000a    (pad 1 smd roundrect (at -0.875 0) (size 1.05 0.95) (layers B.Cu B.Paste B.Mask) (roundrect_rratio 0.25)\u000a      (net 8 /DSI1/IN2))\u000a    (model ${KISYS3DMOD}/Resistor_SMD.3dshapes/R_0603_1608Metric.wrl\u000a      (at (xyz 0 0 0))\u000a      (scale (xyz 1 1 1))\u000a      (rotate (xyz 0 0 0))\u000a    )\u000a  )\u000a\u000a  (module Resistor_SMD:R_0603_1608Metric_Pad1.05x0.95mm_HandSolder (layer B.Cu) (tedit 5B301BBD) (tstamp 5E9375C4)\u000a    (at 107.5182 57.8612)\u000a    (descr "Resistor SMD 0603 (1608 Metric), square (rectangular) end terminal, IPC_7351 nominal with elongated pad for handsoldering. (Body size source: http://www.tortai-tech.com/upload/download/2011102023233369053.pdf), generated with kicad-footprint-generator")\u000a    (tags "resistor handsolder")\u000a    (path /5E93A753/5D0FFDAB)\u000a    (attr smd)\u000a    (fp_text reference R1 (at -2.2225 0.0635) (layer B.SilkS)\u000a      (effects (font (size 1 1) (thickness 0.15)) (justify mirror))\u000a    )\u000a    (fp_text value 100R (at 0 -1.43) (layer B.Fab)\u000a      (effects (font (size 1 1) (thickness 0.15)) (justify mirror))\u000a    )\u000a    (fp_line (start -0.8 -0.4) (end -0.8 0.4) (layer B.Fab) (width 0.1))\u000a    (fp_line (start -0.8 0.4) (end 0.8 0.4) (layer B.Fab) (width 0.1))\u000a    (fp_line (start 0.8 0.4) (end 0.8 -0.4) (layer B.Fab) (width 0.1))\u000a    (fp_line (start 0.8 -0.4) (end -0.8 -0.4) (layer B.Fab) (width 0.1))\u000a    (fp_line (start -0.171267 0.51) (end 0.171267 0.51) (layer B.SilkS) (width 0.12))\u000a    (fp_line (start -0.171267 -0.51) (end 0.171267 -0.51) (layer B.SilkS) (width 0.12))\u000a    (fp_line (start -1.65 -0.73) (end -1.65 0.73) (layer B.CrtYd) (width 0.05))\u000a    (fp_line (start -1.65 0.73) (end 1.65 0.73) (layer B.CrtYd) (width 0.05))\u000a    (fp_line (start 1.65 0.73) (end 1.65 -0.73) (layer B.CrtYd) (width 0.05))\u000a    (fp_line (start 1.65 -0.73) (end -1.65 -0.73) (layer B.CrtYd) (width 0.05))\u000a    (fp_text user %R (at 0 0) (layer B.Fab)\u000a      (effects (font (size 0.4 0.4) (thickness 0.06)) (justify mirror))\u000a    )\u000a    (pad 2 smd roundrect (at 0.875 0) (size 1.05 0.95) (layers B.Cu B.Paste B.Mask) (roundrect_rratio 0.25)\u000a      (net 5 "Net-(D1-Pad1)"))\u000a    (pad 1 smd roundrect (at -0.875 0) (size 1.05 0.95) (layers B.Cu B.Paste B.Mask) (roundrect_rratio 0.25)\u000a      (net 7 /DSI1/IN1))\u000a    (model ${KISYS3DMOD}/Resistor_SMD.3dshapes/R_0603_1608Metric.wrl\u000a      (at (xyz 0 0 0))\u000a      (scale (xyz 1 1 1))\u000a      (rotate (xyz 0 0 0))\u000a    )\u000a  )\u000a\u000a  (module Package_TO_SOT_SMD:SOT-23-6_Handsoldering (layer F.Cu) (tedit 5A02FF57) (tstamp 5E938143)\u000a    (at 113.665 58.8645)\u000a    (descr "6-pin SOT-23 package, Handsoldering")\u000a    (tags "SOT-23-6 Handsoldering")\u000a    (path /5E93A753/5E94704E)\u000a    (attr smd)\u000a    (fp_text reference D2 (at 0.0635 -1.8415) (layer F.SilkS)\u000a      (effects (font (size 1 1) (thickness 0.15)))\u000a    )\u000a    (fp_text value D_Schottky_double_x2_Serial_A1K1C2A2K2C1 (at 0 2.9) (layer F.Fab)\u000a      (effects (font (size 1 1) (thickness 0.15)))\u000a    )\u000a    (fp_line (start -0.9 1.61) (end 0.9 1.61) (layer F.SilkS) (width 0.12))\u000a    (fp_line (start 0.9 -1.61) (end -2.05 -1.61) (layer F.SilkS) (width 0.12))\u000a    (fp_line (start -2.4 1.8) (end -2.4 -1.8) (layer F.CrtYd) (width 0.05))\u000a    (fp_line (start 2.4 1.8) (end -2.4 1.8) (layer F.CrtYd) (width 0.05))\u000a    (fp_line (start 2.4 -1.8) (end 2.4 1.8) (layer F.CrtYd) (width 0.05))\u000a    (fp_line (start -2.4 -1.8) (end 2.4 -1.8) (layer F.CrtYd) (width 0.05))\u000a    (fp_line (start -0.9 -0.9) (end -0.25 -1.55) (layer F.Fab) (width 0.1))\u000a    (fp_line (start 0.9 -1.55) (end -0.25 -1.55) (layer F.Fab) (width 0.1))\u000a    (fp_line (start -0.9 -0.9) (end -0.9 1.55) (layer F.Fab) (width 0.1))\u000a    (fp_line (start 0.9 1.55) (end -0.9 1.55) (layer F.Fab) (width 0.1))\u000a    (fp_line (start 0.9 -1.55) (end 0.9 1.55) (layer F.Fab) (width 0.1))\u000a    (fp_text user %R (at 0 0 90) (layer F.Fab)\u000a      (effects (font (size 0.5 0.5) (thickness 0.075)))\u000a    )\u000a    (pad 5 smd rect (at 1.35 0) (size 1.56 0.65) (layers F.Cu F.Paste F.Mask)\u000a      (net 6 /DSI1/VIO))\u000a    (pad 6 smd rect (at 1.35 -0.95) (size 1.56 0.65) (layers F.Cu F.Paste F.Mask)\u000a      (net 2 "Net-(C1-Pad1)"))\u000a    (pad 4 smd rect (at 1.35 0.95) (size 1.56 0.65) (layers F.Cu F.Paste F.Mask)\u000a      (net 1 GND))\u000a    (pad 3 smd rect (at -1.35 0.95) (size 1.56 0.65) (layers F.Cu F.Paste F.Mask)\u000a      (net 3 "Net-(C2-Pad1)"))\u000a    (pad 2 smd rect (at -1.35 0) (size 1.56 0.65) (layers F.Cu F.Paste F.Mask)\u000a      (net 6 /DSI1/VIO))\u000a    (pad 1 smd rect (at -1.35 -0.95) (size 1.56 0.65) (layers F.Cu F.Paste F.Mask)\u000a      (net 1 GND))\u000a    (model ${KISYS3DMOD}/Package_TO_SOT_SMD.3dshapes/SOT-23-6.wrl\u000a      (at (xyz 0 0 0))\u000a      (scale (xyz 1 1 1))\u000a      (rotate (xyz 0 0 0))\u000a    )\u000a  )\u000a\u000a  (module Package_TO_SOT_SMD:SOT-23_Handsoldering (layer F.Cu) (tedit 5A0AB76C) (tstamp 5EE26429)\u000a    (at 108.5596 58.8772)\u000a    (descr "SOT-23, Handsoldering")\u000a    (tags SOT-23)\u000a    (path /5E93A753/5E951DEB)\u000a    (attr smd)\u000a    (fp_text reference D1 (at -0.5055 -1.905) (layer F.SilkS)\u000a      (effects (font (size 1 1) (thickness 0.15)))\u000a    )\u000a    (fp_text value MMBZ12V (at 0 2.5) (layer F.Fab)\u000a      (effects (font (size 1 1) (thickness 0.15)))\u000a    )\u000a    (fp_line (start 0.76 1.58) (end 0.76 0.65) (layer F.SilkS) (width 0.12))\u000a    (fp_line (start 0.76 -1.58) (end 0.76 -0.65) (layer F.SilkS) (width 0.12))\u000a    (fp_line (start -2.7 -1.75) (end 2.7 -1.75) (layer F.CrtYd) (width 0.05))\u000a    (fp_line (start 2.7 -1.75) (end 2.7 1.75) (layer F.CrtYd) (width 0.05))\u000a    (fp_line (start 2.7 1.75) (end -2.7 1.75) (layer F.CrtYd) (width 0.05))\u000a    (fp_line (start -2.7 1.75) (end -2.7 -1.75) (layer F.CrtYd) (width 0.05))\u000a    (fp_line (start 0.76 -1.58) (end -2.4 -1.58) (layer F.SilkS) (width 0.12))\u000a    (fp_line (start -0.7 -0.95) (end -0.7 1.5) (layer F.Fab) (width 0.1))\u000a    (fp_line (start -0.15 -1.52) (end 0.7 -1.52) (layer F.Fab) (width 0.1))\u000a    (fp_line (start -0.7 -0.95) (end -0.15 -1.52) (layer F.Fab) (width 0.1))\u000a    (fp_line (start 0.7 -1.52) (end 0.7 1.52) (layer F.Fab) (width 0.1))\u000a    (fp_line (start -0.7 1.52) (end 0.7 1.52) (layer F.Fab) (width 0.1))\u000a    (fp_line (start 0.76 1.58) (end -0.7 1.58) (layer F.SilkS) (width 0.12))\u000a    (fp_text user %R (at 0 0 90) (layer F.Fab)\u000a      (effects (font (size 0.5 0.5) (thickness 0.075)))\u000a    )\u000a    (pad 3 smd rect (at 1.5 0) (size 1.9 0.8) (layers F.Cu F.Paste F.Mask)\u000a      (net 1 GND))\u000a    (pad 2 smd rect (at -1.5 0.95) (size 1.9 0.8) (layers F.Cu F.Paste F.Mask)\u000a      (net 4 "Net-(D1-Pad2)"))\u000a    (pad 1 smd rect (at -1.5 -0.95) (size 1.9 0.8) (layers F.Cu F.Paste F.Mask)\u000a      (net 5 "Net-(D1-Pad1)"))\u000a    (model ${KISYS3DMOD}/Package_TO_SOT_SMD.3dshapes/SOT-23.wrl\u000a      (at (xyz 0 0 0))\u000a      (scale (xyz 1 1 1))\u000a      (rotate (xyz 0 0 0))\u000a    )\u000a  )\u000a\u000a  (module Capacitor_SMD:C_0603_1608Metric_Pad1.05x0.95mm_HandSolder (layer F.Cu) (tedit 5B301BBE) (tstamp 5E938755)\u000a    (at 118.3005 59.6265 180)\u000a    (descr "Capacitor SMD 0603 (1608 Metric), square (rectangular) end terminal, IPC_7351 nominal with elongated pad for handsoldering. (Body size source: http://www.tortai-tech.com/upload/download/2011102023233369053.pdf), generated with kicad-footprint-generator")\u000a    (tags "capacitor handsolder")\u000a    (path /5E93A753/5E967D61)\u000a    (attr smd)\u000a    (fp_text reference C2 (at 0 -1.0795) (layer F.SilkS)\u000a      (effects (font (size 1 1) (thickness 0.15)))\u000a    )\u000a    (fp_text value 47nF (at 0 1.43) (layer F.Fab)\u000a      (effects (font (size 1 1) (thickness 0.15)))\u000a    )\u000a    (fp_line (start -0.8 0.4) (end -0.8 -0.4) (layer F.Fab) (width 0.1))\u000a    (fp_line (start -0.8 -0.4) (end 0.8 -0.4) (layer F.Fab) (width 0.1))\u000a    (fp_line (start 0.8 -0.4) (end 0.8 0.4) (layer F.Fab) (width 0.1))\u000a    (fp_line (start 0.8 0.4) (end -0.8 0.4) (layer F.Fab) (width 0.1))\u000a    (fp_line (start -0.171267 -0.51) (end 0.171267 -0.51) (layer F.SilkS) (width 0.12))\u000a    (fp_line (start -0.171267 0.51) (end 0.171267 0.51) (layer F.SilkS) (width 0.12))\u000a    (fp_line (start -1.65 0.73) (end -1.65 -0.73) (layer F.CrtYd) (width 0.05))\u000a    (fp_line (start -1.65 -0.73) (end 1.65 -0.73) (layer F.CrtYd) (width 0.05))\u000a    (fp_line (start 1.65 -0.73) (end 1.65 0.73) (layer F.CrtYd) (width 0.05))\u000a    (fp_line (start 1.65 0.73) (end -1.65 0.73) (layer F.CrtYd) (width 0.05))\u000a    (fp_text user %R (at 0 0) (layer F.Fab)\u000a      (effects (font (size 0.4 0.4) (thickness 0.06)))\u000a    )\u000a    (pad 2 smd roundrect (at 0.875 0 180) (size 1.05 0.95) (layers F.Cu F.Paste F.Mask) (roundrect_rratio 0.25)\u000a      (net 1 GND))\u000a    (pad 1 smd roundrect (at -0.875 0 180) (size 1.05 0.95) (layers F.Cu F.Paste F.Mask) (roundrect_rratio 0.25)\u000a      (net 3 "Net-(C2-Pad1)"))\u000a    (model ${KISYS3DMOD}/Capacitor_SMD.3dshapes/C_0603_1608Metric.wrl\u000a      (at (xyz 0 0 0))\u000a      (scale (xyz 1 1 1))\u000a      (rotate (xyz 0 0 0))\u000a    )\u000a  )\u000a\u000a  (module Capacitor_SMD:C_0603_1608Metric_Pad1.05x0.95mm_HandSolder (layer F.Cu) (tedit 5B301BBE) (tstamp 5E936FDC)\u000a    (at 118.3005 58.166 180)\u000a    (descr "Capacitor SMD 0603 (1608 Metric), square (rectangular) end terminal, IPC_7351 nominal with elongated pad for handsoldering. (Body size source: http://www.tortai-tech.com/upload/download/2011102023233369053.pdf), generated with kicad-footprint-generator")\u000a    (tags "capacitor handsolder")\u000a    (path /5E93A753/5E95CD13)\u000a    (attr smd)\u000a    (fp_text reference C1 (at 0.0635 1.016) (layer F.SilkS)\u000a      (effects (font (size 1 1) (thickness 0.15)))\u000a    )\u000a    (fp_text value 47nF (at 0 1.43) (layer F.Fab)\u000a      (effects (font (size 1 1) (thickness 0.15)))\u000a    )\u000a    (fp_line (start -0.8 0.4) (end -0.8 -0.4) (layer F.Fab) (width 0.1))\u000a    (fp_line (start -0.8 -0.4) (end 0.8 -0.4) (layer F.Fab) (width 0.1))\u000a    (fp_line (start 0.8 -0.4) (end 0.8 0.4) (layer F.Fab) (width 0.1))\u000a    (fp_line (start 0.8 0.4) (end -0.8 0.4) (layer F.Fab) (width 0.1))\u000a    (fp_line (start -0.171267 -0.51) (end 0.171267 -0.51) (layer F.SilkS) (width 0.12))\u000a    (fp_line (start -0.171267 0.51) (end 0.171267 0.51) (layer F.SilkS) (width 0.12))\u000a    (fp_line (start -1.65 0.73) (end -1.65 -0.73) (layer F.CrtYd) (width 0.05))\u000a    (fp_line (start -1.65 -0.73) (end 1.65 -0.73) (layer F.CrtYd) (width 0.05))\u000a    (fp_line (start 1.65 -0.73) (end 1.65 0.73) (layer F.CrtYd) (width 0.05))\u000a    (fp_line (start 1.65 0.73) (end -1.65 0.73) (layer F.CrtYd) (width 0.05))\u000a    (fp_text user %R (at 0 0) (layer F.Fab)\u000a      (effects (font (size 0.4 0.4) (thickness 0.06)))\u000a    )\u000a    (pad 2 smd roundrect (at 0.875 0 180) (size 1.05 0.95) (layers F.Cu F.Paste F.Mask) (roundrect_rratio 0.25)\u000a      (net 1 GND))\u000a    (pad 1 smd roundrect (at -0.875 0 180) (size 1.05 0.95) (layers F.Cu F.Paste F.Mask) (roundrect_rratio 0.25)\u000a      (net 2 "Net-(C1-Pad1)"))\u000a    (model ${KISYS3DMOD}/Capacitor_SMD.3dshapes/C_0603_1608Metric.wrl\u000a      (at (xyz 0 0 0))\u000a      (scale (xyz 1 1 1))\u000a      (rotate (xyz 0 0 0))\u000a    )\u000a  )\u000a\u000a  (dimension 4.572 (width 0.15) (layer Dwgs.User)\u000a    (gr_text "4,572 mm" (at 122.9025 58.8645 90) (layer Dwgs.User)\u000a      (effects (font (size 1 1) (thickness 0.15)))\u000a    )\u000a    (feature1 (pts (xy 120.015 56.5785) (xy 122.188921 56.5785)))\u000a    (feature2 (pts (xy 120.015 61.1505) (xy 122.188921 61.1505)))\u000a    (crossbar (pts (xy 121.6025 61.1505) (xy 121.6025 56.5785)))\u000a    (arrow1a (pts (xy 121.6025 56.5785) (xy 122.188921 57.705004)))\u000a    (arrow1b (pts (xy 121.6025 56.5785) (xy 121.016079 57.705004)))\u000a    (arrow2a (pts (xy 121.6025 61.1505) (xy 122.188921 60.023996)))\u000a    (arrow2b (pts (xy 121.6025 61.1505) (xy 121.016079 60.023996)))\u000a  )\u000a  (dimension 15.240132 (width 0.15) (layer Dwgs.User)\u000a    (gr_text "15,240 mm" (at 112.382175 53.532292 0.2387310331) (layer Dwgs.User)\u000a      (effects (font (size 1 1) (thickness 0.15)))\u000a    )\u000a    (feature1 (pts (xy 104.775 56.642) (xy 104.765148 54.277616)))\u000a    (feature2 (pts (xy 120.015 56.5785) (xy 120.005148 54.214116)))\u000a    (crossbar (pts (xy 120.007592 54.800531) (xy 104.767592 54.864031)))\u000a    (arrow1a (pts (xy 104.767592 54.864031) (xy 105.891643 54.272922)))\u000a    (arrow1b (pts (xy 104.767592 54.864031) (xy 105.896529 55.445753)))\u000a    (arrow2a (pts (xy 120.007592 54.800531) (xy 118.878655 54.218809)))\u000a    (arrow2b (pts (xy 120.007592 54.800531) (xy 118.883541 55.39164)))\u000a  )\u000a\u000a  (via (at 116.3955 58.8645) (size 0.8) (drill 0.4) (layers F.Cu B.Cu) (net 1) (status 1000000))\u000a  (segment (start 117.094 58.166) (end 116.3955 58.8645) (width 0.15) (layer F.Cu) (net 1))\u000a  (segment (start 117.4115 58.166) (end 117.1575 58.166) (width 0.15) (layer F.Cu) (net 1))\u000a  (segment (start 117.1575 59.6265) (end 116.3955 58.8645) (width 0.15) (layer F.Cu) (net 1))\u000a  (segment (start 117.4255 59.6265) (end 117.221 59.6265) (width 0.15) (layer F.Cu) (net 1))\u000a  (segment (start 110.9828 57.9145) (end 110.0328 58.8645) (width 0.15) (layer F.Cu) (net 1))\u000a  (segment (start 116.3955 58.8645) (end 115.062 58.8645) (width 0.15) (layer B.Cu) (net 1))\u000a  (segment (start 115.062 58.8645) (end 113.9825 57.785) (width 0.15) (layer B.Cu) (net 1))\u000a  (segment (start 113.9965 59.93) (end 115.062 58.8645) (width 0.15) (layer B.Cu) (net 1))\u000a  (segment (start 113.9965 59.944) (end 113.9965 59.93) (width 0.15) (layer B.Cu) (net 1))\u000a  (via (at 108.5088 58.8772) (size 0.8) (drill 0.4) (layers F.Cu B.Cu) (net 1))\u000a  (segment (start 116.3955 59.055) (end 116.3955 58.8645) (width 0.15) (layer F.Cu) (net 1))\u000a  (segment (start 115.015 59.8145) (end 115.636 59.8145) (width 0.15) (layer F.Cu) (net 1))\u000a  (segment (start 115.636 59.8145) (end 116.3955 59.055) (width 0.15) (layer F.Cu) (net 1))\u000a  (segment (start 112.315 57.9145) (end 110.9828 57.9145) (width 0.15) (layer F.Cu) (net 1))\u000a  (segment (start 110.0611 58.8772) (end 110.0698 58.8685) (width 0.15) (layer F.Cu) (net 1))\u000a  (segment (start 108.5088 58.8645) (end 108.5215 58.8772) (width 0.15) (layer F.Cu) (net 1))\u000a  (segment (start 108.5215 58.8772) (end 110.0611 58.8772) (width 0.15) (layer F.Cu) (net 1))\u000a  (segment (start 117.4115 57.8739) (end 116.7638 57.2262) (width 0.15) (layer B.Cu) (net 2))\u000a  (segment (start 117.4115 58.166) (end 117.4115 57.8739) (width 0.15) (layer B.Cu) (net 2))\u000a  (segment (start 116.0755 57.9145) (end 116.7638 57.2262) (width 0.15) (layer F.Cu) (net 2))\u000a  (segment (start 118.2357 57.2262) (end 116.7638 57.2262) (width 0.15) (layer F.Cu) (net 2))\u000a  (segment (start 115.015 57.9145) (end 116.0755 57.9145) (width 0.15) (layer F.Cu) (net 2))\u000a  (segment (start 119.1755 58.166) (end 118.2357 57.2262) (width 0.15) (layer F.Cu) (net 2))\u000a  (segment (start 112.4445 58.166) (end 112.4445 57.691) (width 0.15) (layer B.Cu) (net 2))\u000a  (segment (start 115.7465 59.944) (end 116.1288 59.944) (width 0.15) (layer B.Cu) (net 3))\u000a  (segment (start 116.172714 60.553599) (end 116.738399 60.553599) (width 0.15) (layer F.Cu) (net 3))\u000a  (segment (start 116.1288 59.944) (end 116.738399 60.553599) (width 0.15) (layer B.Cu) (net 3))\u000a  (segment (start 119.1755 59.6265) (end 118.248401 60.553599) (width 0.15) (layer F.Cu) (net 3))\u000a  (segment (start 112.3315 59.817) (end 113.068099 60.553599) (width 0.15) (layer F.Cu) (net 3))\u000a  (segment (start 118.248401 60.553599) (end 116.738399 60.553599) (width 0.15) (layer F.Cu) (net 3))\u000a  (segment (start 113.068099 60.553599) (end 116.172714 60.553599) (width 0.15) (layer F.Cu) (net 3))\u000a  (segment (start 116.738401 60.553599) (end 116.738399 60.553599) (width 0.15) (layer B.Cu) (net 3))\u000a  (segment (start 117.4255 59.6265) (end 117.4255 59.8665) (width 0.15) (layer B.Cu) (net 3))\u000a  (segment (start 117.4255 59.8665) (end 116.738401 60.553599) (width 0.15) (layer B.Cu) (net 3))\u000a  (segment (start 112.4445 59.6265) (end 112.4445 60.1015) (width 0.15) (layer B.Cu) (net 3))\u000a  (via (at 109.6518 60.0075) (size 0.8) (drill 0.4) (layers F.Cu B.Cu) (net 4))\u000a  (segment (start 107.0698 59.8185) (end 109.4628 59.8185) (width 0.15) (layer F.Cu) (net 4))\u000a  (segment (start 109.4628 59.8185) (end 109.6518 60.0075) (width 0.15) (layer F.Cu) (net 4))\u000a  (segment (start 110.0328 59.6265) (end 109.6518 60.0075) (width 0.15) (layer B.Cu) (net 4))\u000a  (segment (start 110.8723 59.6265) (end 110.0328 59.6265) (width 0.15) (layer B.Cu) (net 4))\u000a  (segment (start 108.3945 59.8678) (end 108.3818 59.8805) (width 0.15) (layer B.Cu) (net 4))\u000a  (segment (start 109.6518 60.0075) (end 109.5121 59.8678) (width 0.15) (layer B.Cu) (net 4))\u000a  (segment (start 109.5121 59.8678) (end 108.3945 59.8678) (width 0.15) (layer B.Cu) (net 4))\u000a  (segment (start 109.4548 57.9185) (end 107.0698 57.9185) (width 0.15) (layer F.Cu) (net 5))\u000a  (via (at 109.6518 57.658) (size 0.8) (drill 0.4) (layers F.Cu B.Cu) (net 5))\u000a  (segment (start 109.6518 57.658) (end 109.4548 57.9185) (width 0.15) (layer F.Cu) (net 5))\u000a  (segment (start 110.1598 58.166) (end 109.6518 57.658) (width 0.15) (layer B.Cu) (net 5))\u000a  (segment (start 110.8723 58.166) (end 110.1598 58.166) (width 0.15) (layer B.Cu) (net 5))\u000a  (segment (start 108.458 57.8358) (end 108.4453 57.8485) (width 0.15) (layer B.Cu) (net 5))\u000a  (segment (start 109.6518 57.658) (end 109.474 57.8358) (width 0.15) (layer B.Cu) (net 5))\u000a  (segment (start 109.474 57.8358) (end 108.458 57.8358) (width 0.15) (layer B.Cu) (net 5))\u000a  (via (at 113.665 58.8645) (size 0.8) (drill 0.4) (layers F.Cu B.Cu) (net 6))\u000a  (segment (start 112.315 58.8645) (end 113.665 58.8645) (width 0.15) (layer F.Cu) (net 6))\u000a  (segment (start 115.015 58.8645) (end 113.665 58.8645) (width 0.15) (layer F.Cu) (net 6))\u000a  (segment (start 106.6673 57.8485) (end 106.4768 57.658) (width 0.15) (layer B.Cu) (net 7))\u000a  (segment (start 106.6318 59.8805) (end 106.4413 60.071) (width 0.15) (layer B.Cu) (net 8))\u000a\u000a)\u000a
p3
Vd6c234d6691dd98e352849b8706cbcca
p4
(dp5
V5E93A753
p6
(lp7
VDSI1
p8
aVDSI_VCC_2x.sch
p9
as(lp10
VNet-(C2-Pad1)
p11
aV/DSI1/OUT2
p12
aVNet-(C1-Pad1)
p13
aV/DSI1/OUT1
p14
aVGND
p15
aVNet-(D1-Pad2)
p16
aVNet-(D1-Pad1)
p17
aV/DSI1/IN2
p18
aV/DSI1/IN1
p19
aV/DSI1/VIO
p20
a(lp21
g8
a(lp22
g9
atp23
tp24
Rp25
.